target datalayout = "e-m:e-p270:32:32-p271:32:32-p272:64:64-i64:64-i128:128-f80:128-n8:16:32:64-S128"
target triple = "x86_64-pc-linux-gnu"

%struct._object = type { %union.anon, ptr }
%union.anon = type { i64 }
%struct.PyMemAllocatorEx = type { ptr, ptr, ptr, ptr, ptr }
%struct.alloc_hook_t = type { %struct.PyMemAllocatorEx, i64, i64, i64, ptr, i64, ptr, ptr }
%struct.anon = type { i32, i32 }

@_Py_NoneStruct = external global %struct._object, align 8
@PyExc_RuntimeError = external global ptr, align 8
@.str.26 = private unnamed_addr constant [14 x i8] c"malloc failed\00", align 1
@.str.27 = private unnamed_addr constant [21 x i8] c"malloc wrong context\00", align 1
@.str.28 = private unnamed_addr constant [20 x i8] c"malloc invalid size\00", align 1
@.str.29 = private unnamed_addr constant [15 x i8] c"realloc failed\00", align 1
@.str.30 = private unnamed_addr constant [22 x i8] c"realloc wrong context\00", align 1
@.str.31 = private unnamed_addr constant [27 x i8] c"realloc invalid parameters\00", align 1
@.str.32 = private unnamed_addr constant [19 x i8] c"free wrong context\00", align 1
@.str.33 = private unnamed_addr constant [21 x i8] c"free invalid pointer\00", align 1
@.str.34 = private unnamed_addr constant [14 x i8] c"calloc failed\00", align 1
@.str.35 = private unnamed_addr constant [21 x i8] c"calloc wrong context\00", align 1
@.str.36 = private unnamed_addr constant [31 x i8] c"calloc invalid nelem or elsize\00", align 1
@.str.37 = private unnamed_addr constant [26 x i8] c"calloc free wrong context\00", align 1
@.str.38 = private unnamed_addr constant [28 x i8] c"calloc free invalid pointer\00", align 1

; Function Attrs: alwaysinline nounwind uwtable
define internal void @Py_INCREF(ptr noundef %0) #5 {
  %2 = alloca ptr, align 8
  %3 = alloca i32, align 4
  %4 = alloca i32, align 4
  store ptr %0, ptr %2, align 8, !tbaa !3
  call void @llvm.lifetime.start.p0(i64 4, ptr %3) #6
  %5 = load ptr, ptr %2, align 8, !tbaa !3
  %6 = getelementptr inbounds nuw %struct._object, ptr %5, i32 0, i32 0
  %7 = getelementptr inbounds nuw %struct.anon, ptr %6, i32 0, i32 0
  %8 = load i32, ptr %7, align 8, !tbaa !10
  store i32 %8, ptr %3, align 4, !tbaa !21
  %9 = load i32, ptr %3, align 4, !tbaa !21
  %10 = icmp slt i32 %9, 0
  br i1 %10, label %11, label %12

11:                                               ; preds = %1
  store i32 1, ptr %4, align 4
  br label %18

12:                                               ; preds = %1
  %13 = load i32, ptr %3, align 4, !tbaa !21
  %14 = add i32 %13, 1
  %15 = load ptr, ptr %2, align 8, !tbaa !3
  %16 = getelementptr inbounds nuw %struct._object, ptr %15, i32 0, i32 0
  %17 = getelementptr inbounds nuw %struct.anon, ptr %16, i32 0, i32 0
  store i32 %14, ptr %17, align 8, !tbaa !10
  store i32 0, ptr %4, align 4
  br label %18

18:                                               ; preds = %12, %11
  call void @llvm.lifetime.end.p0(i64 4, ptr %3) #6
  %19 = load i32, ptr %4, align 4
  switch i32 %19, label %21 [
    i32 0, label %20
    i32 1, label %20
  ]

20:                                               ; preds = %18, %18
  ret void

21:                                               ; preds = %18
  unreachable
}

; Function Attrs: inlinehint nounwind uwtable
define internal ptr @_Py_NewRef(ptr noundef %0) #4 {
  %2 = alloca ptr, align 8
  store ptr %0, ptr %2, align 8, !tbaa !3
  %3 = load ptr, ptr %2, align 8, !tbaa !3
  call void @Py_INCREF(ptr noundef %3)
  %4 = load ptr, ptr %2, align 8, !tbaa !3
  ret ptr %4
}

; Function Attrs: nounwind uwtable
define internal ptr @test_setallocators(i32 noundef %0) #0 {
  %2 = alloca i32, align 4
  %3 = alloca ptr, align 8
  %4 = alloca ptr, align 8
  %5 = alloca %struct.alloc_hook_t, align 8
  %6 = alloca %struct.PyMemAllocatorEx, align 8
  %7 = alloca i64, align 8
  %8 = alloca ptr, align 8
  %9 = alloca i64, align 8
  %10 = alloca ptr, align 8
  %11 = alloca i64, align 8
  %12 = alloca i64, align 8
  store i32 %0, ptr %2, align 4, !tbaa !21
  call void @llvm.lifetime.start.p0(i64 8, ptr %3) #6
  store ptr null, ptr %3, align 8, !tbaa !3
  call void @llvm.lifetime.start.p0(i64 8, ptr %4) #6
  call void @llvm.lifetime.start.p0(i64 96, ptr %5) #6
  call void @llvm.memset.p0.i64(ptr align 8 %5, i8 0, i64 96, i1 false)
  call void @llvm.lifetime.start.p0(i64 40, ptr %6) #6
  %13 = getelementptr inbounds nuw %struct.PyMemAllocatorEx, ptr %6, i32 0, i32 0
  store ptr %5, ptr %13, align 8, !tbaa !37
  %14 = getelementptr inbounds nuw %struct.PyMemAllocatorEx, ptr %6, i32 0, i32 1
  store ptr @hook_malloc, ptr %14, align 8, !tbaa !33
  %15 = getelementptr inbounds nuw %struct.PyMemAllocatorEx, ptr %6, i32 0, i32 2
  store ptr @hook_calloc, ptr %15, align 8, !tbaa !34
  %16 = getelementptr inbounds nuw %struct.PyMemAllocatorEx, ptr %6, i32 0, i32 3
  store ptr @hook_realloc, ptr %16, align 8, !tbaa !35
  %17 = getelementptr inbounds nuw %struct.PyMemAllocatorEx, ptr %6, i32 0, i32 4
  store ptr @hook_free, ptr %17, align 8, !tbaa !36
  %18 = load i32, ptr %2, align 4, !tbaa !21
  %19 = getelementptr inbounds nuw %struct.alloc_hook_t, ptr %5, i32 0, i32 0
  call void @PyMem_GetAllocator(i32 noundef %18, ptr noundef %19)
  %20 = load i32, ptr %2, align 4, !tbaa !21
  call void @PyMem_SetAllocator(i32 noundef %20, ptr noundef %6)
  call void @llvm.lifetime.start.p0(i64 8, ptr %7) #6
  store i64 42, ptr %7, align 8, !tbaa !22
  %21 = getelementptr inbounds nuw %struct.alloc_hook_t, ptr %5, i32 0, i32 7
  store ptr null, ptr %21, align 8, !tbaa !39
  call void @llvm.lifetime.start.p0(i64 8, ptr %8) #6
  %22 = load i32, ptr %2, align 4, !tbaa !21
  switch i32 %22, label %32 [
    i32 0, label %23
    i32 1, label %26
    i32 2, label %29
  ]

23:                                               ; preds = %1
  %24 = load i64, ptr %7, align 8, !tbaa !22
  %25 = call ptr @PyMem_RawMalloc(i64 noundef %24)
  store ptr %25, ptr %8, align 8, !tbaa !18
  br label %33

26:                                               ; preds = %1
  %27 = load i64, ptr %7, align 8, !tbaa !22
  %28 = call ptr @PyMem_Malloc(i64 noundef %27)
  store ptr %28, ptr %8, align 8, !tbaa !18
  br label %33

29:                                               ; preds = %1
  %30 = load i64, ptr %7, align 8, !tbaa !22
  %31 = call ptr @PyObject_Malloc(i64 noundef %30)
  store ptr %31, ptr %8, align 8, !tbaa !18
  br label %33

32:                                               ; preds = %1
  store ptr null, ptr %8, align 8, !tbaa !18
  br label %33

33:                                               ; preds = %32, %29, %26, %23
  %34 = load ptr, ptr %8, align 8, !tbaa !18
  %35 = icmp eq ptr %34, null
  br i1 %35, label %36, label %37

36:                                               ; preds = %33
  store ptr @.str.26, ptr %4, align 8, !tbaa !8
  br label %164

37:                                               ; preds = %33
  %38 = getelementptr inbounds nuw %struct.alloc_hook_t, ptr %5, i32 0, i32 7
  %39 = load ptr, ptr %38, align 8, !tbaa !39
  %40 = icmp ne ptr %39, %5
  br i1 %40, label %41, label %42

41:                                               ; preds = %37
  store ptr @.str.27, ptr %4, align 8, !tbaa !8
  br label %164

42:                                               ; preds = %37
  %43 = getelementptr inbounds nuw %struct.alloc_hook_t, ptr %5, i32 0, i32 7
  store ptr null, ptr %43, align 8, !tbaa !39
  %44 = getelementptr inbounds nuw %struct.alloc_hook_t, ptr %5, i32 0, i32 1
  %45 = load i64, ptr %44, align 8, !tbaa !41
  %46 = load i64, ptr %7, align 8, !tbaa !22
  %47 = icmp ne i64 %45, %46
  br i1 %47, label %48, label %49

48:                                               ; preds = %42
  store ptr @.str.28, ptr %4, align 8, !tbaa !8
  br label %164

49:                                               ; preds = %42
  store i64 200, ptr %9, align 8, !tbaa !22
  %50 = load i32, ptr %2, align 4, !tbaa !21
  switch i32 %50, label %63 [
    i32 0, label %51
    i32 1, label %55
    i32 2, label %59
  ]

51:                                               ; preds = %49
  %52 = load ptr, ptr %8, align 8, !tbaa !18
  %53 = load i64, ptr %9, align 8, !tbaa !22
  %54 = call ptr @PyMem_RawRealloc(ptr noundef %52, i64 noundef %53)
  store ptr %54, ptr %10, align 8, !tbaa !18
  br label %64

55:                                               ; preds = %49
  %56 = load ptr, ptr %8, align 8, !tbaa !18
  %57 = load i64, ptr %9, align 8, !tbaa !22
  %58 = call ptr @PyMem_Realloc(ptr noundef %56, i64 noundef %57)
  store ptr %58, ptr %10, align 8, !tbaa !18
  br label %64

59:                                               ; preds = %49
  %60 = load ptr, ptr %8, align 8, !tbaa !18
  %61 = load i64, ptr %9, align 8, !tbaa !22
  %62 = call ptr @PyObject_Realloc(ptr noundef %60, i64 noundef %61)
  store ptr %62, ptr %10, align 8, !tbaa !18
  br label %64

63:                                               ; preds = %49
  store ptr null, ptr %10, align 8, !tbaa !18
  br label %64

64:                                               ; preds = %63, %59, %55, %51
  %65 = load ptr, ptr %10, align 8, !tbaa !18
  %66 = icmp eq ptr %65, null
  br i1 %66, label %67, label %68

67:                                               ; preds = %64
  store ptr @.str.29, ptr %4, align 8, !tbaa !8
  br label %164

68:                                               ; preds = %64
  %69 = getelementptr inbounds nuw %struct.alloc_hook_t, ptr %5, i32 0, i32 7
  %70 = load ptr, ptr %69, align 8, !tbaa !39
  %71 = icmp ne ptr %70, %5
  br i1 %71, label %72, label %73

72:                                               ; preds = %68
  store ptr @.str.30, ptr %4, align 8, !tbaa !8
  br label %164

73:                                               ; preds = %68
  %74 = getelementptr inbounds nuw %struct.alloc_hook_t, ptr %5, i32 0, i32 7
  store ptr null, ptr %74, align 8, !tbaa !39
  %75 = getelementptr inbounds nuw %struct.alloc_hook_t, ptr %5, i32 0, i32 4
  %76 = load ptr, ptr %75, align 8, !tbaa !42
  %77 = load ptr, ptr %8, align 8, !tbaa !18
  %78 = icmp ne ptr %76, %77
  br i1 %78, label %84, label %79

79:                                               ; preds = %73
  %80 = getelementptr inbounds nuw %struct.alloc_hook_t, ptr %5, i32 0, i32 5
  %81 = load i64, ptr %80, align 8, !tbaa !43
  %82 = load i64, ptr %9, align 8, !tbaa !22
  %83 = icmp ne i64 %81, %82
  br i1 %83, label %84, label %85

84:                                               ; preds = %79, %73
  store ptr @.str.31, ptr %4, align 8, !tbaa !8
  br label %164

85:                                               ; preds = %79
  %86 = load i32, ptr %2, align 4, !tbaa !21
  switch i32 %86, label %93 [
    i32 0, label %87
    i32 1, label %89
    i32 2, label %91
  ]

87:                                               ; preds = %85
  %88 = load ptr, ptr %10, align 8, !tbaa !18
  call void @PyMem_RawFree(ptr noundef %88)
  br label %93

89:                                               ; preds = %85
  %90 = load ptr, ptr %10, align 8, !tbaa !18
  call void @PyMem_Free(ptr noundef %90)
  br label %93

91:                                               ; preds = %85
  %92 = load ptr, ptr %10, align 8, !tbaa !18
  call void @PyObject_Free(ptr noundef %92)
  br label %93

93:                                               ; preds = %85, %91, %89, %87
  %94 = getelementptr inbounds nuw %struct.alloc_hook_t, ptr %5, i32 0, i32 7
  %95 = load ptr, ptr %94, align 8, !tbaa !39
  %96 = icmp ne ptr %95, %5
  br i1 %96, label %97, label %98

97:                                               ; preds = %93
  store ptr @.str.32, ptr %4, align 8, !tbaa !8
  br label %164

98:                                               ; preds = %93
  %99 = getelementptr inbounds nuw %struct.alloc_hook_t, ptr %5, i32 0, i32 7
  store ptr null, ptr %99, align 8, !tbaa !39
  %100 = getelementptr inbounds nuw %struct.alloc_hook_t, ptr %5, i32 0, i32 6
  %101 = load ptr, ptr %100, align 8, !tbaa !44
  %102 = load ptr, ptr %10, align 8, !tbaa !18
  %103 = icmp ne ptr %101, %102
  br i1 %103, label %104, label %105

104:                                              ; preds = %98
  store ptr @.str.33, ptr %4, align 8, !tbaa !8
  br label %164

105:                                              ; preds = %98
  store i64 2, ptr %11, align 8, !tbaa !22
  store i64 5, ptr %12, align 8, !tbaa !22
  %106 = load i32, ptr %2, align 4, !tbaa !21
  switch i32 %106, label %119 [
    i32 0, label %107
    i32 1, label %111
    i32 2, label %115
  ]

107:                                              ; preds = %105
  %108 = load i64, ptr %11, align 8, !tbaa !22
  %109 = load i64, ptr %12, align 8, !tbaa !22
  %110 = call ptr @PyMem_RawCalloc(i64 noundef %108, i64 noundef %109)
  store ptr %110, ptr %8, align 8, !tbaa !18
  br label %120

111:                                              ; preds = %105
  %112 = load i64, ptr %11, align 8, !tbaa !22
  %113 = load i64, ptr %12, align 8, !tbaa !22
  %114 = call ptr @PyMem_Calloc(i64 noundef %112, i64 noundef %113)
  store ptr %114, ptr %8, align 8, !tbaa !18
  br label %120

115:                                              ; preds = %105
  %116 = load i64, ptr %11, align 8, !tbaa !22
  %117 = load i64, ptr %12, align 8, !tbaa !22
  %118 = call ptr @PyObject_Calloc(i64 noundef %116, i64 noundef %117)
  store ptr %118, ptr %8, align 8, !tbaa !18
  br label %120

119:                                              ; preds = %105
  store ptr null, ptr %8, align 8, !tbaa !18
  br label %120

120:                                              ; preds = %119, %115, %111, %107
  %121 = load ptr, ptr %8, align 8, !tbaa !18
  %122 = icmp eq ptr %121, null
  br i1 %122, label %123, label %124

123:                                              ; preds = %120
  store ptr @.str.34, ptr %4, align 8, !tbaa !8
  br label %164

124:                                              ; preds = %120
  %125 = getelementptr inbounds nuw %struct.alloc_hook_t, ptr %5, i32 0, i32 7
  %126 = load ptr, ptr %125, align 8, !tbaa !39
  %127 = icmp ne ptr %126, %5
  br i1 %127, label %128, label %129

128:                                              ; preds = %124
  store ptr @.str.35, ptr %4, align 8, !tbaa !8
  br label %164

129:                                              ; preds = %124
  %130 = getelementptr inbounds nuw %struct.alloc_hook_t, ptr %5, i32 0, i32 7
  store ptr null, ptr %130, align 8, !tbaa !39
  %131 = getelementptr inbounds nuw %struct.alloc_hook_t, ptr %5, i32 0, i32 2
  %132 = load i64, ptr %131, align 8, !tbaa !45
  %133 = load i64, ptr %11, align 8, !tbaa !22
  %134 = icmp ne i64 %132, %133
  br i1 %134, label %140, label %135

135:                                              ; preds = %129
  %136 = getelementptr inbounds nuw %struct.alloc_hook_t, ptr %5, i32 0, i32 3
  %137 = load i64, ptr %136, align 8, !tbaa !46
  %138 = load i64, ptr %12, align 8, !tbaa !22
  %139 = icmp ne i64 %137, %138
  br i1 %139, label %140, label %141

140:                                              ; preds = %135, %129
  store ptr @.str.36, ptr %4, align 8, !tbaa !8
  br label %164

141:                                              ; preds = %135
  %142 = getelementptr inbounds nuw %struct.alloc_hook_t, ptr %5, i32 0, i32 6
  store ptr null, ptr %142, align 8, !tbaa !44
  %143 = load i32, ptr %2, align 4, !tbaa !21
  switch i32 %143, label %150 [
    i32 0, label %144
    i32 1, label %146
    i32 2, label %148
  ]

144:                                              ; preds = %141
  %145 = load ptr, ptr %8, align 8, !tbaa !18
  call void @PyMem_RawFree(ptr noundef %145)
  br label %150

146:                                              ; preds = %141
  %147 = load ptr, ptr %8, align 8, !tbaa !18
  call void @PyMem_Free(ptr noundef %147)
  br label %150

148:                                              ; preds = %141
  %149 = load ptr, ptr %8, align 8, !tbaa !18
  call void @PyObject_Free(ptr noundef %149)
  br label %150

150:                                              ; preds = %141, %148, %146, %144
  %151 = getelementptr inbounds nuw %struct.alloc_hook_t, ptr %5, i32 0, i32 7
  %152 = load ptr, ptr %151, align 8, !tbaa !39
  %153 = icmp ne ptr %152, %5
  br i1 %153, label %154, label %155

154:                                              ; preds = %150
  store ptr @.str.37, ptr %4, align 8, !tbaa !8
  br label %164

155:                                              ; preds = %150
  %156 = getelementptr inbounds nuw %struct.alloc_hook_t, ptr %5, i32 0, i32 7
  store ptr null, ptr %156, align 8, !tbaa !39
  %157 = getelementptr inbounds nuw %struct.alloc_hook_t, ptr %5, i32 0, i32 6
  %158 = load ptr, ptr %157, align 8, !tbaa !44
  %159 = load ptr, ptr %8, align 8, !tbaa !18
  %160 = icmp ne ptr %158, %159
  br i1 %160, label %161, label %162

161:                                              ; preds = %155
  store ptr @.str.38, ptr %4, align 8, !tbaa !8
  br label %164

162:                                              ; preds = %155
  %163 = call ptr @_Py_NewRef(ptr noundef @_Py_NoneStruct)
  store ptr %163, ptr %3, align 8, !tbaa !3
  br label %167

164:                                              ; preds = %161, %154, %140, %128, %123, %104, %97, %84, %72, %67, %48, %41, %36
  %165 = load ptr, ptr @PyExc_RuntimeError, align 8, !tbaa !3
  %166 = load ptr, ptr %4, align 8, !tbaa !8
  call void @PyErr_SetString(ptr noundef %165, ptr noundef %166)
  br label %167

167:                                              ; preds = %164, %162
  %168 = load i32, ptr %2, align 4, !tbaa !21
  %169 = getelementptr inbounds nuw %struct.alloc_hook_t, ptr %5, i32 0, i32 0
  call void @PyMem_SetAllocator(i32 noundef %168, ptr noundef %169)
  %170 = load ptr, ptr %3, align 8, !tbaa !3
  call void @llvm.lifetime.end.p0(i64 8, ptr %8) #6
  call void @llvm.lifetime.end.p0(i64 8, ptr %7) #6
  call void @llvm.lifetime.end.p0(i64 40, ptr %6) #6
  call void @llvm.lifetime.end.p0(i64 96, ptr %5) #6
  call void @llvm.lifetime.end.p0(i64 8, ptr %4) #6
  call void @llvm.lifetime.end.p0(i64 8, ptr %3) #6
  ret ptr %170
}