; Function Attrs: nounwind uwtable
define internal fastcc noundef ptr @test_setallocators(i32 noundef range(i32 0, 3) %0) unnamed_addr #0 {
  %2 = alloca %struct.alloc_hook_t, align 8
  %3 = alloca %struct.PyMemAllocatorEx, align 8
  call void @llvm.lifetime.start.p0(i64 96, ptr nonnull %2) #4
  call void @llvm.memset.p0.i64(ptr noundef nonnull align 8 dereferenceable(96) %2, i8 0, i64 96, i1 false)
  call void @llvm.lifetime.start.p0(i64 40, ptr nonnull %3) #4
  store ptr %2, ptr %3, align 8, !tbaa !19
  %4 = getelementptr inbounds nuw i8, ptr %3, i64 8
  store ptr @hook_malloc, ptr %4, align 8, !tbaa !15
  %5 = getelementptr inbounds nuw i8, ptr %3, i64 16
  store ptr @hook_calloc, ptr %5, align 8, !tbaa !16
  %6 = getelementptr inbounds nuw i8, ptr %3, i64 24
  store ptr @hook_realloc, ptr %6, align 8, !tbaa !17
  %7 = getelementptr inbounds nuw i8, ptr %3, i64 32
  store ptr @hook_free, ptr %7, align 8, !tbaa !18
  call void @PyMem_GetAllocator(i32 noundef %0, ptr noundef nonnull %2) #4
  call void @PyMem_SetAllocator(i32 noundef %0, ptr noundef nonnull %3) #4
  %8 = getelementptr inbounds nuw i8, ptr %2, i64 88
  store ptr null, ptr %8, align 8, !tbaa !31
  switch i32 %0, label %default.unreachable58 [
    i32 0, label %9
    i32 1, label %11
    i32 2, label %13
  ]

9:                                                ; preds = %1
  %10 = call ptr @PyMem_RawMalloc(i64 noundef 42) #4
  br label %15

11:                                               ; preds = %1
  %12 = call ptr @PyMem_Malloc(i64 noundef 42) #4
  br label %15

13:                                               ; preds = %1
  %14 = call ptr @PyObject_Malloc(i64 noundef 42) #4
  br label %15

default.unreachable58:                            ; preds = %63, %47, %38, %22, %1
  unreachable

15:                                               ; preds = %13, %11, %9
  %.042 = phi ptr [ %14, %13 ], [ %12, %11 ], [ %10, %9 ]
  %16 = icmp eq ptr %.042, null
  br i1 %16, label %76, label %17

17:                                               ; preds = %15
  %18 = load ptr, ptr %8, align 8, !tbaa !31
  %.not = icmp eq ptr %18, %2
  br i1 %.not, label %19, label %76

19:                                               ; preds = %17
  store ptr null, ptr %8, align 8, !tbaa !31
  %20 = getelementptr inbounds nuw i8, ptr %2, i64 40
  %21 = load i64, ptr %20, align 8, !tbaa !33
  %.not44 = icmp eq i64 %21, 42
  br i1 %.not44, label %22, label %76

22:                                               ; preds = %19
  switch i32 %0, label %default.unreachable58 [
    i32 0, label %23
    i32 1, label %25
    i32 2, label %27
  ]

23:                                               ; preds = %22
  %24 = call ptr @PyMem_RawRealloc(ptr noundef nonnull %.042, i64 noundef 200) #4
  br label %29

25:                                               ; preds = %22
  %26 = call ptr @PyMem_Realloc(ptr noundef nonnull %.042, i64 noundef 200) #4
  br label %29

27:                                               ; preds = %22
  %28 = call ptr @PyObject_Realloc(ptr noundef nonnull %.042, i64 noundef 200) #4
  br label %29

29:                                               ; preds = %27, %25, %23
  %.041 = phi ptr [ %28, %27 ], [ %26, %25 ], [ %24, %23 ]
  %30 = icmp eq ptr %.041, null
  br i1 %30, label %76, label %31

31:                                               ; preds = %29
  %32 = load ptr, ptr %8, align 8, !tbaa !31
  %.not45 = icmp eq ptr %32, %2
  br i1 %.not45, label %33, label %76

33:                                               ; preds = %31
  store ptr null, ptr %8, align 8, !tbaa !31
  %34 = getelementptr inbounds nuw i8, ptr %2, i64 64
  %35 = load ptr, ptr %34, align 8, !tbaa !34
  %.not46 = icmp eq ptr %35, %.042
  %36 = getelementptr inbounds nuw i8, ptr %2, i64 72
  %37 = load i64, ptr %36, align 8
  %.not47 = icmp eq i64 %37, 200
  %or.cond = select i1 %.not46, i1 %.not47, i1 false
  br i1 %or.cond, label %38, label %76

38:                                               ; preds = %33
  switch i32 %0, label %default.unreachable58 [
    i32 0, label %39
    i32 1, label %40
    i32 2, label %41
  ]

39:                                               ; preds = %38
  call void @PyMem_RawFree(ptr noundef nonnull %.041) #4
  br label %42

40:                                               ; preds = %38
  call void @PyMem_Free(ptr noundef nonnull %.041) #4
  br label %42

41:                                               ; preds = %38
  call void @PyObject_Free(ptr noundef nonnull %.041) #4
  br label %42

42:                                               ; preds = %41, %40, %39
  %43 = load ptr, ptr %8, align 8, !tbaa !31
  %.not48 = icmp eq ptr %43, %2
  br i1 %.not48, label %44, label %76

44:                                               ; preds = %42
  store ptr null, ptr %8, align 8, !tbaa !31
  %45 = getelementptr inbounds nuw i8, ptr %2, i64 80
  %46 = load ptr, ptr %45, align 8, !tbaa !35
  %.not49 = icmp eq ptr %46, %.041
  br i1 %.not49, label %47, label %76

47:                                               ; preds = %44
  switch i32 %0, label %default.unreachable58 [
    i32 0, label %48
    i32 1, label %50
    i32 2, label %52
  ]

48:                                               ; preds = %47
  %49 = call ptr @PyMem_RawCalloc(i64 noundef 2, i64 noundef 5) #4
  br label %54

50:                                               ; preds = %47
  %51 = call ptr @PyMem_Calloc(i64 noundef 2, i64 noundef 5) #4
  br label %54

52:                                               ; preds = %47
  %53 = call ptr @PyObject_Calloc(i64 noundef 2, i64 noundef 5) #4
  br label %54

54:                                               ; preds = %52, %50, %48
  %.1 = phi ptr [ %53, %52 ], [ %51, %50 ], [ %49, %48 ]
  %55 = icmp eq ptr %.1, null
  br i1 %55, label %76, label %56

56:                                               ; preds = %54
  %57 = load ptr, ptr %8, align 8, !tbaa !31
  %.not50 = icmp eq ptr %57, %2
  br i1 %.not50, label %58, label %76

58:                                               ; preds = %56
  store ptr null, ptr %8, align 8, !tbaa !31
  %59 = getelementptr inbounds nuw i8, ptr %2, i64 48
  %60 = load i64, ptr %59, align 8, !tbaa !36
  %.not51 = icmp eq i64 %60, 2
  %61 = getelementptr inbounds nuw i8, ptr %2, i64 56
  %62 = load i64, ptr %61, align 8
  %.not52 = icmp eq i64 %62, 5
  %or.cond57 = select i1 %.not51, i1 %.not52, i1 false
  br i1 %or.cond57, label %63, label %76

63:                                               ; preds = %58
  store ptr null, ptr %45, align 8, !tbaa !35
  switch i32 %0, label %default.unreachable58 [
    i32 0, label %64
    i32 1, label %65
    i32 2, label %66
  ]

64:                                               ; preds = %63
  call void @PyMem_RawFree(ptr noundef nonnull %.1) #4
  br label %67

65:                                               ; preds = %63
  call void @PyMem_Free(ptr noundef nonnull %.1) #4
  br label %67

66:                                               ; preds = %63
  call void @PyObject_Free(ptr noundef nonnull %.1) #4
  br label %67

67:                                               ; preds = %66, %65, %64
  %68 = load ptr, ptr %8, align 8, !tbaa !31
  %.not53 = icmp eq ptr %68, %2
  br i1 %.not53, label %69, label %76

69:                                               ; preds = %67
  store ptr null, ptr %8, align 8, !tbaa !31
  %70 = load ptr, ptr %45, align 8, !tbaa !35
  %.not54 = icmp eq ptr %70, %.1
  br i1 %.not54, label %71, label %76

71:                                               ; preds = %69
  %72 = load i32, ptr @_Py_NoneStruct, align 8, !tbaa !3
  %73 = icmp slt i32 %72, 0
  br i1 %73, label %_Py_NewRef.exit, label %74

74:                                               ; preds = %71
  %75 = add nuw i32 %72, 1
  store i32 %75, ptr @_Py_NoneStruct, align 8, !tbaa !3
  br label %_Py_NewRef.exit

76:                                               ; preds = %69, %67, %58, %56, %54, %44, %42, %33, %31, %29, %19, %17, %15
  %.040 = phi ptr [ @.str.26, %15 ], [ @.str.27, %17 ], [ @.str.28, %19 ], [ @.str.29, %29 ], [ @.str.30, %31 ], [ @.str.31, %33 ], [ @.str.32, %42 ], [ @.str.33, %44 ], [ @.str.34, %54 ], [ @.str.35, %56 ], [ @.str.36, %58 ], [ @.str.37, %67 ], [ @.str.38, %69 ]
  %77 = load ptr, ptr @PyExc_RuntimeError, align 8, !tbaa !20
  call void @PyErr_SetString(ptr noundef %77, ptr noundef nonnull %.040) #4
  br label %_Py_NewRef.exit

_Py_NewRef.exit:                                  ; preds = %74, %71, %76
  %.0 = phi ptr [ null, %76 ], [ @_Py_NoneStruct, %71 ], [ @_Py_NoneStruct, %74 ]
  call void @PyMem_SetAllocator(i32 noundef %0, ptr noundef nonnull %2) #4
  call void @llvm.lifetime.end.p0(i64 40, ptr nonnull %3) #4
  call void @llvm.lifetime.end.p0(i64 96, ptr nonnull %2) #4
  ret ptr %.0
}